; Function Attrs: mustprogress nofree norecurse nosync nounwind willreturn memory(argmem: readwrite) uwtable
define noundef nonnull align 8 dereferenceable(64) ptr @_ZNK6icu_7712NumberFormat6formatEiRNS_13UnicodeStringEPNS_21FieldPositionIteratorER10UErrorCode(ptr nonnull readnone align 8 captures(none) %0, i32 %1, ptr noundef nonnull readnone returned align 8 dereferenceable(64) %2, ptr readnone captures(none) %3, ptr noundef nonnull align 4 captures(none) dereferenceable(4) %4) unnamed_addr #15 align 2 {
  %6 = load i32, ptr %4, align 4, !tbaa !13
  %7 = icmp slt i32 %6, 1
  br i1 %7, label %8, label %9

8:                                                ; preds = %5
  store i32 16, ptr %4, align 4, !tbaa !13
  br label %9

9:                                                ; preds = %8, %5
  ret ptr %2
}